target datalayout = "e-m:e-p270:32:32-p271:32:32-p272:64:64-i64:64-i128:128-f80:128-n8:16:32:64-S128"
target triple = "x86_64-pc-linux-gnu"

%class.GrowableArrayBase = type { i32, i32 }
%class.GrowableArrayView = type { %class.GrowableArrayBase, ptr }
%class.ResourceHashtableNode.52 = type { i32, ptr, ptr, ptr }
%class.FixedResourceHashtableStorage.3 = type { [557 x ptr] }
%class.Array = type { i32, [1 x ptr] }
%class.BitMap = type { ptr, i64 }
%class.ReservedSpace = type <{ ptr, i64, i64, i64, i64, i8, [3 x i8], i32, i8, [7 x i8] }>
%class.ArchiveBuilder = type { ptr, ptr, ptr, ptr, i32, i64, ptr, ptr, ptr, ptr, ptr, ptr, i64, %class.ReservedSpace, %class.VirtualSpace, %class.DumpRegion, %class.DumpRegion, %class.CHeapBitMap, %class.CHeapBitMap, %class.CHeapBitMap, %"class.ArchiveBuilder::SourceObjList", %"class.ArchiveBuilder::SourceObjList", %class.ResizeableResourceHashtable, %class.ResizeableResourceHashtable.45, ptr, ptr, i32, %class.DumpAllocStats, i64, i64, i64 }
%class.VirtualSpace = type { ptr, ptr, ptr, ptr, i8, i8, ptr, ptr, ptr, ptr, ptr, ptr, i64, i64, i64 }
%class.DumpRegion = type { ptr, ptr, ptr, ptr, i64, i8, ptr, ptr }
%class.CHeapBitMap = type <{ %class.GrowableBitMap, i8, [7 x i8] }>
%class.GrowableBitMap = type { %class.BitMap }
%"class.ArchiveBuilder::SourceObjList" = type { i64, ptr, %class.CHeapBitMap }
%class.ResizeableResourceHashtable = type { %class.ResourceHashtableBase.base.44, i32 }
%class.ResourceHashtableBase.base.44 = type <{ %class.ResizeableResourceHashtableStorage, i32 }>
%class.ResizeableResourceHashtableStorage = type { i32, ptr }
%class.ResizeableResourceHashtable.45 = type { %class.ResourceHashtableBase.base.48, i32 }
%class.ResourceHashtableBase.base.48 = type <{ %class.ResizeableResourceHashtableStorage.47, i32 }>
%class.ResizeableResourceHashtableStorage.47 = type { i32, ptr }
%class.DumpAllocStats = type { %class.CompactHashtableStats, %class.CompactHashtableStats, [2 x [23 x i32]], [2 x [23 x i32]], i32, i32, i32, i32, i32, i32, i32, i32, i32 }
%class.CompactHashtableStats = type { i32, i32, i32, i32 }
%class.anon.53 = type { i8 }

@_ZL24_archive_modules_entries = internal global ptr null, align 8
@_ZN14ArchiveBuilder8_currentE = external global ptr, align 8

; Function Attrs: mustprogress nounwind uwtable
define linkonce_odr hidden noundef ptr @_ZNK29FixedResourceHashtableStorageILj557EPK11ModuleEntryPS0_E5tableEv(ptr noundef nonnull align 8 dereferenceable(4456) %0) #1 comdat align 2 {
  %2 = alloca ptr, align 8
  store ptr %0, ptr %2, align 8
  %3 = load ptr, ptr %2, align 8
  %4 = getelementptr inbounds %class.FixedResourceHashtableStorage.3, ptr %3, i32 0, i32 0
  %5 = getelementptr inbounds [557 x ptr], ptr %4, i64 0, i64 0
  ret ptr %5
}

; Function Attrs: mustprogress nounwind uwtable
define linkonce_odr hidden noundef ptr @_ZNK21ResourceHashtableBaseI29FixedResourceHashtableStorageILj557EPK11ModuleEntryPS1_ES3_S4_LN6AnyObj15allocation_typeE2EL8MEMFLAGS9EXadL_Z14primitive_hashIS3_EjRKT_EEXadL_Z16primitive_equalsIS3_EbSC_SC_EEE5tableEv(ptr noundef nonnull align 8 dereferenceable(4460) %0) #1 comdat align 2 {
  %2 = alloca ptr, align 8
  store ptr %0, ptr %2, align 8
  %3 = load ptr, ptr %2, align 8
  %4 = call noundef ptr @_ZNK29FixedResourceHashtableStorageILj557EPK11ModuleEntryPS0_E5tableEv(ptr noundef nonnull align 8 dereferenceable(4456) %3)
  ret ptr %4
}

; Function Attrs: mustprogress nounwind uwtable
define linkonce_odr hidden noundef i32 @_ZNK29FixedResourceHashtableStorageILj557EPK11ModuleEntryPS0_E10table_sizeEv(ptr noundef nonnull align 8 dereferenceable(4456) %0) #1 comdat align 2 {
  %2 = alloca ptr, align 8
  store ptr %0, ptr %2, align 8
  ret i32 557
}

; Function Attrs: mustprogress nounwind uwtable
define linkonce_odr hidden noundef zeroext i1 @_Z16primitive_equalsIPK11ModuleEntryEbRKT_S5_(ptr noundef nonnull align 8 dereferenceable(8) %0, ptr noundef nonnull align 8 dereferenceable(8) %1) #1 comdat {
  %3 = alloca ptr, align 8
  %4 = alloca ptr, align 8
  store ptr %0, ptr %3, align 8
  store ptr %1, ptr %4, align 8
  %5 = load ptr, ptr %3, align 8
  %6 = load ptr, ptr %5, align 8
  %7 = load ptr, ptr %4, align 8
  %8 = load ptr, ptr %7, align 8
  %9 = icmp eq ptr %6, %8
  ret i1 %9
}

; Function Attrs: mustprogress nounwind uwtable
define linkonce_odr hidden noundef ptr @_ZN21ResourceHashtableBaseI29FixedResourceHashtableStorageILj557EPK11ModuleEntryPS1_ES3_S4_LN6AnyObj15allocation_typeE2EL8MEMFLAGS9EXadL_Z14primitive_hashIS3_EjRKT_EEXadL_Z16primitive_equalsIS3_EbSC_SC_EEE9bucket_atEj(ptr noundef nonnull align 8 dereferenceable(4460) %0, i32 noundef %1) #1 comdat align 2 {
  %3 = alloca ptr, align 8
  %4 = alloca i32, align 4
  %5 = alloca ptr, align 8
  store ptr %0, ptr %3, align 8
  store i32 %1, ptr %4, align 4
  %6 = load ptr, ptr %3, align 8
  %7 = call noundef ptr @_ZNK21ResourceHashtableBaseI29FixedResourceHashtableStorageILj557EPK11ModuleEntryPS1_ES3_S4_LN6AnyObj15allocation_typeE2EL8MEMFLAGS9EXadL_Z14primitive_hashIS3_EjRKT_EEXadL_Z16primitive_equalsIS3_EbSC_SC_EEE5tableEv(ptr noundef nonnull align 8 dereferenceable(4460) %6)
  store ptr %7, ptr %5, align 8
  %8 = load ptr, ptr %5, align 8
  %9 = load i32, ptr %4, align 4
  %10 = zext i32 %9 to i64
  %11 = getelementptr inbounds ptr, ptr %8, i64 %10
  ret ptr %11
}

; Function Attrs: mustprogress nounwind uwtable
define linkonce_odr hidden noundef i32 @_ZNK21ResourceHashtableBaseI29FixedResourceHashtableStorageILj557EPK11ModuleEntryPS1_ES3_S4_LN6AnyObj15allocation_typeE2EL8MEMFLAGS9EXadL_Z14primitive_hashIS3_EjRKT_EEXadL_Z16primitive_equalsIS3_EbSC_SC_EEE10table_sizeEv(ptr noundef nonnull align 8 dereferenceable(4460) %0) #1 comdat align 2 {
  %2 = alloca ptr, align 8
  store ptr %0, ptr %2, align 8
  %3 = load ptr, ptr %2, align 8
  %4 = call noundef i32 @_ZNK29FixedResourceHashtableStorageILj557EPK11ModuleEntryPS0_E10table_sizeEv(ptr noundef nonnull align 8 dereferenceable(4456) %3)
  ret i32 %4
}

; Function Attrs: mustprogress nounwind uwtable
define linkonce_odr hidden noundef i64 @_ZZN5ArrayIP11ModuleEntryE20base_offset_in_bytesEvENKUlvE_clEv(ptr noundef nonnull align 1 dereferenceable(1) %0) #1 comdat align 2 {
  %2 = alloca ptr, align 8
  %3 = alloca [16 x i8], align 16
  %4 = alloca ptr, align 8
  %5 = alloca ptr, align 8
  store ptr %0, ptr %2, align 8
  %6 = getelementptr inbounds [16 x i8], ptr %3, i64 0, i64 0
  store ptr %6, ptr %4, align 8
  %7 = load ptr, ptr %4, align 8
  %8 = getelementptr inbounds %class.Array, ptr %7, i32 0, i32 1
  store ptr %8, ptr %5, align 8
  %9 = load ptr, ptr %5, align 8
  %10 = getelementptr inbounds [16 x i8], ptr %3, i64 0, i64 0
  %11 = ptrtoint ptr %9 to i64
  %12 = ptrtoint ptr %10 to i64
  %13 = sub i64 %11, %12
  ret i64 %13
}

; Function Attrs: mustprogress nounwind uwtable
define linkonce_odr hidden noundef ptr @_ZN21ResourceHashtableBaseI29FixedResourceHashtableStorageILj557EPK11ModuleEntryPS1_ES3_S4_LN6AnyObj15allocation_typeE2EL8MEMFLAGS9EXadL_Z14primitive_hashIS3_EjRKT_EEXadL_Z16primitive_equalsIS3_EbSC_SC_EEE11lookup_nodeEjRKS3_(ptr noundef nonnull align 8 dereferenceable(4460) %0, i32 noundef %1, ptr noundef nonnull align 8 dereferenceable(8) %2) #1 comdat align 2 {
  %4 = alloca ptr, align 8
  %5 = alloca i32, align 4
  %6 = alloca ptr, align 8
  %7 = alloca i32, align 4
  %8 = alloca ptr, align 8
  %9 = alloca ptr, align 8
  store ptr %0, ptr %4, align 8
  store i32 %1, ptr %5, align 4
  store ptr %2, ptr %6, align 8
  %10 = load ptr, ptr %4, align 8
  %11 = load i32, ptr %5, align 4
  %12 = call noundef i32 @_ZNK21ResourceHashtableBaseI29FixedResourceHashtableStorageILj557EPK11ModuleEntryPS1_ES3_S4_LN6AnyObj15allocation_typeE2EL8MEMFLAGS9EXadL_Z14primitive_hashIS3_EjRKT_EEXadL_Z16primitive_equalsIS3_EbSC_SC_EEE10table_sizeEv(ptr noundef nonnull align 8 dereferenceable(4460) %10)
  %13 = urem i32 %11, %12
  store i32 %13, ptr %7, align 4
  %14 = load i32, ptr %7, align 4
  %15 = call noundef ptr @_ZN21ResourceHashtableBaseI29FixedResourceHashtableStorageILj557EPK11ModuleEntryPS1_ES3_S4_LN6AnyObj15allocation_typeE2EL8MEMFLAGS9EXadL_Z14primitive_hashIS3_EjRKT_EEXadL_Z16primitive_equalsIS3_EbSC_SC_EEE9bucket_atEj(ptr noundef nonnull align 8 dereferenceable(4460) %10, i32 noundef %14)
  store ptr %15, ptr %8, align 8
  br label %16

16:                                               ; preds = %34, %3
  %17 = load ptr, ptr %8, align 8
  %18 = load ptr, ptr %17, align 8
  %19 = icmp ne ptr %18, null
  br i1 %19, label %20, label %37

20:                                               ; preds = %16
  %21 = load ptr, ptr %8, align 8
  %22 = load ptr, ptr %21, align 8
  store ptr %22, ptr %9, align 8
  %23 = load ptr, ptr %9, align 8
  %24 = getelementptr inbounds %class.ResourceHashtableNode.52, ptr %23, i32 0, i32 0
  %25 = load i32, ptr %24, align 8
  %26 = load i32, ptr %5, align 4
  %27 = icmp eq i32 %25, %26
  br i1 %27, label %28, label %34

28:                                               ; preds = %20
  %29 = load ptr, ptr %6, align 8
  %30 = load ptr, ptr %9, align 8
  %31 = getelementptr inbounds %class.ResourceHashtableNode.52, ptr %30, i32 0, i32 1
  %32 = call noundef zeroext i1 @_Z16primitive_equalsIPK11ModuleEntryEbRKT_S5_(ptr noundef nonnull align 8 dereferenceable(8) %29, ptr noundef nonnull align 8 dereferenceable(8) %31)
  br i1 %32, label %33, label %34

33:                                               ; preds = %28
  br label %37

34:                                               ; preds = %28, %20
  %35 = load ptr, ptr %9, align 8
  %36 = getelementptr inbounds %class.ResourceHashtableNode.52, ptr %35, i32 0, i32 3
  store ptr %36, ptr %8, align 8
  br label %16, !llvm.loop !29

37:                                               ; preds = %33, %16
  %38 = load ptr, ptr %8, align 8
  ret ptr %38
}

; Function Attrs: mustprogress nounwind uwtable
define linkonce_odr hidden noundef i32 @_ZN5ArrayIP11ModuleEntryE20base_offset_in_bytesEv() #1 comdat align 2 {
  %1 = alloca %class.anon.53, align 1
  %2 = call noundef i64 @_ZZN5ArrayIP11ModuleEntryE20base_offset_in_bytesEvENKUlvE_clEv(ptr noundef nonnull align 1 dereferenceable(1) %1)
  %3 = trunc i64 %2 to i32
  ret i32 %3
}

; Function Attrs: mustprogress nounwind uwtable
define linkonce_odr hidden noundef ptr @_ZNK21ResourceHashtableBaseI29FixedResourceHashtableStorageILj557EPK11ModuleEntryPS1_ES3_S4_LN6AnyObj15allocation_typeE2EL8MEMFLAGS9EXadL_Z14primitive_hashIS3_EjRKT_EEXadL_Z16primitive_equalsIS3_EbSC_SC_EEE11lookup_nodeEjRKS3_(ptr noundef nonnull align 8 dereferenceable(4460) %0, i32 noundef %1, ptr noundef nonnull align 8 dereferenceable(8) %2) #1 comdat align 2 {
  %4 = alloca ptr, align 8
  %5 = alloca i32, align 4
  %6 = alloca ptr, align 8
  store ptr %0, ptr %4, align 8
  store i32 %1, ptr %5, align 4
  store ptr %2, ptr %6, align 8
  %7 = load ptr, ptr %4, align 8
  %8 = load i32, ptr %5, align 4
  %9 = load ptr, ptr %6, align 8
  %10 = call noundef ptr @_ZN21ResourceHashtableBaseI29FixedResourceHashtableStorageILj557EPK11ModuleEntryPS1_ES3_S4_LN6AnyObj15allocation_typeE2EL8MEMFLAGS9EXadL_Z14primitive_hashIS3_EjRKT_EEXadL_Z16primitive_equalsIS3_EbSC_SC_EEE11lookup_nodeEjRKS3_(ptr noundef nonnull align 8 dereferenceable(4460) %7, i32 noundef %8, ptr noundef nonnull align 8 dereferenceable(8) %9)
  ret ptr %10
}

; Function Attrs: mustprogress nounwind uwtable
define linkonce_odr hidden noundef i32 @_Z14primitive_hashIPK11ModuleEntryEjRKT_(ptr noundef nonnull align 8 dereferenceable(8) %0) #1 comdat {
  %2 = alloca ptr, align 8
  %3 = alloca i32, align 4
  store ptr %0, ptr %2, align 8
  %4 = load ptr, ptr %2, align 8
  %5 = load ptr, ptr %4, align 8
  %6 = ptrtoint ptr %5 to i64
  %7 = trunc i64 %6 to i32
  store i32 %7, ptr %3, align 4
  %8 = load i32, ptr %3, align 4
  %9 = load i32, ptr %3, align 4
  %10 = lshr i32 %9, 3
  %11 = xor i32 %8, %10
  ret i32 %11
}

; Function Attrs: mustprogress nounwind uwtable
define linkonce_odr hidden noundef ptr @_ZN14ArchiveBuilder9ro_regionEv(ptr noundef nonnull align 8 dereferenceable(1080) %0) #1 comdat align 2 {
  %2 = alloca ptr, align 8
  store ptr %0, ptr %2, align 8
  %3 = load ptr, ptr %2, align 8
  %4 = getelementptr inbounds %class.ArchiveBuilder, ptr %3, i32 0, i32 16
  ret ptr %4
}

; Function Attrs: mustprogress nounwind uwtable
define linkonce_odr hidden noundef ptr @_ZN14ArchiveBuilder7currentEv() #1 comdat align 2 {
  %1 = load ptr, ptr @_ZN14ArchiveBuilder8_currentE, align 8
  ret ptr %1
}

; Function Attrs: mustprogress nounwind uwtable
define linkonce_odr hidden noundef i32 @_Z4MAX2IiET_S0_S0_(i32 noundef %0, i32 noundef %1) #1 comdat {
  %3 = alloca i32, align 4
  %4 = alloca i32, align 4
  store i32 %0, ptr %3, align 4
  store i32 %1, ptr %4, align 4
  %5 = load i32, ptr %3, align 4
  %6 = load i32, ptr %4, align 4
  %7 = icmp sgt i32 %5, %6
  br i1 %7, label %8, label %10

8:                                                ; preds = %2
  %9 = load i32, ptr %3, align 4
  br label %12

10:                                               ; preds = %2
  %11 = load i32, ptr %4, align 4
  br label %12

12:                                               ; preds = %10, %8
  %13 = phi i32 [ %9, %8 ], [ %11, %10 ]
  ret i32 %13
}

; Function Attrs: mustprogress nounwind uwtable
define linkonce_odr hidden noundef ptr @_ZN5ArrayIP11ModuleEntryE4dataEv(ptr noundef nonnull align 8 dereferenceable(16) %0) #1 comdat align 2 {
  %2 = alloca ptr, align 8
  store ptr %0, ptr %2, align 8
  %3 = load ptr, ptr %2, align 8
  %4 = call noundef i32 @_ZN5ArrayIP11ModuleEntryE20base_offset_in_bytesEv()
  %5 = sext i32 %4 to i64
  %6 = getelementptr inbounds i8, ptr %3, i64 %5
  ret ptr %6
}

; Function Attrs: mustprogress nounwind uwtable
define linkonce_odr hidden noundef ptr @_ZNK21ResourceHashtableBaseI29FixedResourceHashtableStorageILj557EPK11ModuleEntryPS1_ES3_S4_LN6AnyObj15allocation_typeE2EL8MEMFLAGS9EXadL_Z14primitive_hashIS3_EjRKT_EEXadL_Z16primitive_equalsIS3_EbSC_SC_EEE3getERKS3_(ptr noundef nonnull align 8 dereferenceable(4460) %0, ptr noundef nonnull align 8 dereferenceable(8) %1) #1 comdat align 2 {
  %3 = alloca ptr, align 8
  %4 = alloca ptr, align 8
  %5 = alloca ptr, align 8
  %6 = alloca i32, align 4
  %7 = alloca ptr, align 8
  store ptr %0, ptr %4, align 8
  store ptr %1, ptr %5, align 8
  %8 = load ptr, ptr %4, align 8
  %9 = load ptr, ptr %5, align 8
  %10 = call noundef i32 @_Z14primitive_hashIPK11ModuleEntryEjRKT_(ptr noundef nonnull align 8 dereferenceable(8) %9)
  store i32 %10, ptr %6, align 4
  %11 = load i32, ptr %6, align 4
  %12 = load ptr, ptr %5, align 8
  %13 = call noundef ptr @_ZNK21ResourceHashtableBaseI29FixedResourceHashtableStorageILj557EPK11ModuleEntryPS1_ES3_S4_LN6AnyObj15allocation_typeE2EL8MEMFLAGS9EXadL_Z14primitive_hashIS3_EjRKT_EEXadL_Z16primitive_equalsIS3_EbSC_SC_EEE11lookup_nodeEjRKS3_(ptr noundef nonnull align 8 dereferenceable(4460) %8, i32 noundef %11, ptr noundef nonnull align 8 dereferenceable(8) %12)
  store ptr %13, ptr %7, align 8
  %14 = load ptr, ptr %7, align 8
  %15 = load ptr, ptr %14, align 8
  %16 = icmp ne ptr %15, null
  br i1 %16, label %17, label %21

17:                                               ; preds = %2
  %18 = load ptr, ptr %7, align 8
  %19 = load ptr, ptr %18, align 8
  %20 = getelementptr inbounds %class.ResourceHashtableNode.52, ptr %19, i32 0, i32 2
  store ptr %20, ptr %3, align 8
  br label %22

21:                                               ; preds = %2
  store ptr null, ptr %3, align 8
  br label %22

22:                                               ; preds = %21, %17
  %23 = load ptr, ptr %3, align 8
  ret ptr %23
}

; Function Attrs: mustprogress nounwind uwtable
define linkonce_odr hidden void @_ZN5ArrayIP11ModuleEntryE10initializeEi(ptr noundef nonnull align 8 dereferenceable(16) %0, i32 noundef %1) #1 comdat align 2 {
  %3 = alloca ptr, align 8
  %4 = alloca i32, align 4
  store ptr %0, ptr %3, align 8
  store i32 %1, ptr %4, align 4
  %5 = load ptr, ptr %3, align 8
  %6 = load i32, ptr %4, align 4
  %7 = getelementptr inbounds %class.Array, ptr %5, i32 0, i32 0
  store i32 %6, ptr %7, align 8
  ret void
}

; Function Attrs: mustprogress nounwind uwtable
define linkonce_odr hidden noundef ptr @_ZN14ArchiveBuilder15ro_region_allocEm(i64 noundef %0) #1 comdat align 2 {
  %2 = alloca i64, align 8
  store i64 %0, ptr %2, align 8
  %3 = call noundef ptr @_ZN14ArchiveBuilder7currentEv()
  %4 = call noundef ptr @_ZN14ArchiveBuilder9ro_regionEv(ptr noundef nonnull align 8 dereferenceable(1080) %3)
  %5 = load i64, ptr %2, align 8
  %6 = call noundef ptr @_ZN10DumpRegion8allocateEm(ptr noundef nonnull align 8 dereferenceable(64) %4, i64 noundef %5)
  ret ptr %6
}

; Function Attrs: mustprogress nounwind uwtable
define linkonce_odr hidden noundef i64 @_ZN5ArrayIP11ModuleEntryE11byte_sizeofEim(i32 noundef %0, i64 noundef %1) #1 comdat align 2 {
  %3 = alloca i32, align 4
  %4 = alloca i64, align 8
  store i32 %0, ptr %3, align 4
  store i64 %1, ptr %4, align 8
  %5 = load i32, ptr %3, align 4
  %6 = sub nsw i32 %5, 1
  %7 = call noundef i32 @_Z4MAX2IiET_S0_S0_(i32 noundef %6, i32 noundef 0)
  %8 = sext i32 %7 to i64
  %9 = load i64, ptr %4, align 8
  %10 = mul i64 %8, %9
  %11 = add i64 16, %10
  ret i64 %11
}

; Function Attrs: mustprogress nounwind uwtable
define linkonce_odr hidden noundef ptr @_ZN5ArrayIP11ModuleEntryE6adr_atEi(ptr noundef nonnull align 8 dereferenceable(16) %0, i32 noundef %1) #1 comdat align 2 {
  %3 = alloca ptr, align 8
  %4 = alloca i32, align 4
  store ptr %0, ptr %3, align 8
  store i32 %1, ptr %4, align 4
  %5 = load ptr, ptr %3, align 8
  %6 = call noundef ptr @_ZN5ArrayIP11ModuleEntryE4dataEv(ptr noundef nonnull align 8 dereferenceable(16) %5)
  %7 = load i32, ptr %4, align 4
  %8 = sext i32 %7 to i64
  %9 = getelementptr inbounds ptr, ptr %6, i64 %8
  ret ptr %9
}

; Function Attrs: mustprogress nounwind uwtable
define linkonce_odr hidden void @_ZN5ArrayIP11ModuleEntryE6at_putEiRKS1_(ptr noundef nonnull align 8 dereferenceable(16) %0, i32 noundef %1, ptr noundef nonnull align 8 dereferenceable(8) %2) #1 comdat align 2 {
  %4 = alloca ptr, align 8
  %5 = alloca i32, align 4
  %6 = alloca ptr, align 8
  store ptr %0, ptr %4, align 8
  store i32 %1, ptr %5, align 4
  store ptr %2, ptr %6, align 8
  %7 = load ptr, ptr %4, align 8
  %8 = load ptr, ptr %6, align 8
  %9 = load ptr, ptr %8, align 8
  %10 = call noundef ptr @_ZN5ArrayIP11ModuleEntryE4dataEv(ptr noundef nonnull align 8 dereferenceable(16) %7)
  %11 = load i32, ptr %5, align 4
  %12 = sext i32 %11 to i64
  %13 = getelementptr inbounds ptr, ptr %10, i64 %12
  store ptr %9, ptr %13, align 8
  ret void
}

; Function Attrs: mustprogress nounwind uwtable
define hidden noundef ptr @_ZN11ModuleEntry18get_archived_entryEPS_(ptr noundef %0) #1 align 2 {
  %2 = alloca ptr, align 8
  %3 = alloca ptr, align 8
  store ptr %0, ptr %2, align 8
  %4 = load ptr, ptr @_ZL24_archive_modules_entries, align 8
  %5 = call noundef ptr @_ZNK21ResourceHashtableBaseI29FixedResourceHashtableStorageILj557EPK11ModuleEntryPS1_ES3_S4_LN6AnyObj15allocation_typeE2EL8MEMFLAGS9EXadL_Z14primitive_hashIS3_EjRKT_EEXadL_Z16primitive_equalsIS3_EbSC_SC_EEE3getERKS3_(ptr noundef nonnull align 8 dereferenceable(4460) %4, ptr noundef nonnull align 8 dereferenceable(8) %2)
  store ptr %5, ptr %3, align 8
  %6 = load ptr, ptr %3, align 8
  %7 = load ptr, ptr %6, align 8
  ret ptr %7
}

; Function Attrs: mustprogress nounwind uwtable
define linkonce_odr hidden noundef nonnull align 8 dereferenceable(8) ptr @_ZN17GrowableArrayViewIP11ModuleEntryE2atEi(ptr noundef nonnull align 8 dereferenceable(16) %0, i32 noundef %1) #1 comdat align 2 {
  %3 = alloca ptr, align 8
  %4 = alloca i32, align 4
  store ptr %0, ptr %3, align 8
  store i32 %1, ptr %4, align 4
  %5 = load ptr, ptr %3, align 8
  %6 = getelementptr inbounds %class.GrowableArrayView, ptr %5, i32 0, i32 1
  %7 = load ptr, ptr %6, align 8
  %8 = load i32, ptr %4, align 4
  %9 = sext i32 %8 to i64
  %10 = getelementptr inbounds ptr, ptr %7, i64 %9
  ret ptr %10
}

; Function Attrs: mustprogress nounwind uwtable
define linkonce_odr hidden noundef ptr @_ZN14ArchiveBuilder12new_ro_arrayIP11ModuleEntryEEP5ArrayIT_Ei(i32 noundef %0) #1 comdat align 2 {
  %2 = alloca i32, align 4
  %3 = alloca i64, align 8
  %4 = alloca ptr, align 8
  store i32 %0, ptr %2, align 4
  %5 = load i32, ptr %2, align 4
  %6 = call noundef i64 @_ZN5ArrayIP11ModuleEntryE11byte_sizeofEim(i32 noundef %5, i64 noundef 8)
  store i64 %6, ptr %3, align 8
  %7 = load i64, ptr %3, align 8
  %8 = call noundef ptr @_ZN14ArchiveBuilder15ro_region_allocEm(i64 noundef %7)
  store ptr %8, ptr %4, align 8
  %9 = load ptr, ptr %4, align 8
  %10 = load i32, ptr %2, align 4
  call void @_ZN5ArrayIP11ModuleEntryE10initializeEi(ptr noundef nonnull align 8 dereferenceable(16) %9, i32 noundef %10)
  %11 = load ptr, ptr %4, align 8
  ret ptr %11
}

; Function Attrs: mustprogress nounwind uwtable
define linkonce_odr hidden noundef i32 @_ZNK17GrowableArrayBase6lengthEv(ptr noundef nonnull align 4 dereferenceable(8) %0) #1 comdat align 2 {
  %2 = alloca ptr, align 8
  store ptr %0, ptr %2, align 8
  %3 = load ptr, ptr %2, align 8
  %4 = getelementptr inbounds %class.GrowableArrayBase, ptr %3, i32 0, i32 0
  %5 = load i32, ptr %4, align 4
  ret i32 %5
}

; Function Attrs: mustprogress nounwind uwtable
define hidden noundef ptr @_ZN11ModuleEntry20write_growable_arrayEP13GrowableArrayIPS_E(ptr noundef %0) #1 align 2 {
  %2 = alloca ptr, align 8
  %3 = alloca ptr, align 8
  %4 = alloca i32, align 4
  %5 = alloca i32, align 4
  %6 = alloca ptr, align 8
  store ptr %0, ptr %2, align 8
  store ptr null, ptr %3, align 8
  %7 = load ptr, ptr %2, align 8
  %8 = icmp eq ptr %7, null
  br i1 %8, label %9, label %10

9:                                                ; preds = %1
  br label %13

10:                                               ; preds = %1
  %11 = load ptr, ptr %2, align 8
  %12 = call noundef i32 @_ZNK17GrowableArrayBase6lengthEv(ptr noundef nonnull align 4 dereferenceable(8) %11)
  br label %13

13:                                               ; preds = %10, %9
  %14 = phi i32 [ 0, %9 ], [ %12, %10 ]
  store i32 %14, ptr %4, align 4
  %15 = load i32, ptr %4, align 4
  %16 = icmp sgt i32 %15, 0
  br i1 %16, label %17, label %39

17:                                               ; preds = %13
  %18 = load i32, ptr %4, align 4
  %19 = call noundef ptr @_ZN14ArchiveBuilder12new_ro_arrayIP11ModuleEntryEEP5ArrayIT_Ei(i32 noundef %18)
  store ptr %19, ptr %3, align 8
  store i32 0, ptr %5, align 4
  br label %20

20:                                               ; preds = %35, %17
  %21 = load i32, ptr %5, align 4
  %22 = load i32, ptr %4, align 4
  %23 = icmp slt i32 %21, %22
  br i1 %23, label %24, label %38

24:                                               ; preds = %20
  %25 = load ptr, ptr %2, align 8
  %26 = load i32, ptr %5, align 4
  %27 = call noundef nonnull align 8 dereferenceable(8) ptr @_ZN17GrowableArrayViewIP11ModuleEntryE2atEi(ptr noundef nonnull align 8 dereferenceable(16) %25, i32 noundef %26)
  %28 = load ptr, ptr %27, align 8
  %29 = call noundef ptr @_ZN11ModuleEntry18get_archived_entryEPS_(ptr noundef %28)
  store ptr %29, ptr %6, align 8
  %30 = load ptr, ptr %3, align 8
  %31 = load i32, ptr %5, align 4
  call void @_ZN5ArrayIP11ModuleEntryE6at_putEiRKS1_(ptr noundef nonnull align 8 dereferenceable(16) %30, i32 noundef %31, ptr noundef nonnull align 8 dereferenceable(8) %6)
  %32 = load ptr, ptr %3, align 8
  %33 = load i32, ptr %5, align 4
  %34 = call noundef ptr @_ZN5ArrayIP11ModuleEntryE6adr_atEi(ptr noundef nonnull align 8 dereferenceable(16) %32, i32 noundef %33)
  call void @_ZN16ArchivePtrMarker12mark_pointerEPPh(ptr noundef %34)
  br label %35

35:                                               ; preds = %24
  %36 = load i32, ptr %5, align 4
  %37 = add nsw i32 %36, 1
  store i32 %37, ptr %5, align 4
  br label %20, !llvm.loop !11

38:                                               ; preds = %20
  br label %39

39:                                               ; preds = %38, %13
  %40 = load ptr, ptr %3, align 8
  ret ptr %40
}