; Function Attrs: mustprogress nounwind uwtable
define hidden noundef ptr @_ZN11ModuleEntry20write_growable_arrayEP13GrowableArrayIPS_E(ptr noundef readonly %0) local_unnamed_addr #0 align 2 {
  %2 = icmp eq ptr %0, null
  br i1 %2, label %.thread, label %3

3:                                                ; preds = %1
  %4 = load i32, ptr %0, align 4
  %5 = icmp sgt i32 %4, 0
  br i1 %5, label %6, label %.thread

6:                                                ; preds = %3
  %7 = add nsw i32 %4, -1
  %8 = zext nneg i32 %7 to i64
  %9 = shl nuw nsw i64 %8, 3
  %10 = add nuw nsw i64 %9, 16
  %11 = load ptr, ptr @_ZN14ArchiveBuilder8_currentE, align 8
  %12 = getelementptr inbounds i8, ptr %11, i64 336
  %13 = tail call noundef ptr @_ZN10DumpRegion8allocateEm(ptr noundef nonnull align 8 dereferenceable(64) %12, i64 noundef %10) #16
  store i32 %4, ptr %13, align 8
  %14 = getelementptr inbounds i8, ptr %0, i64 8
  %15 = getelementptr inbounds i8, ptr %13, i64 8
  %wide.trip.count = zext nneg i32 %4 to i64
  br label %16

16:                                               ; preds = %6, %_ZN11ModuleEntry18get_archived_entryEPS_.exit
  %indvars.iv = phi i64 [ 0, %6 ], [ %indvars.iv.next, %_ZN11ModuleEntry18get_archived_entryEPS_.exit ]
  %17 = load ptr, ptr %14, align 8
  %18 = getelementptr inbounds ptr, ptr %17, i64 %indvars.iv
  %19 = load ptr, ptr %18, align 8
  %20 = load ptr, ptr @_ZL24_archive_modules_entries, align 8
  %21 = ptrtoint ptr %19 to i64
  %22 = trunc i64 %21 to i32
  %23 = lshr i32 %22, 3
  %24 = xor i32 %23, %22
  %25 = urem i32 %24, 557
  %26 = zext nneg i32 %25 to i64
  %27 = getelementptr inbounds ptr, ptr %20, i64 %26
  br label %.lr.ph.i.i.i.i

.lr.ph.i.i.i.i:                                   ; preds = %35, %16
  %.in.i = phi ptr [ %36, %35 ], [ %27, %16 ]
  %28 = load ptr, ptr %.in.i, align 8, !nonnull !14, !noundef !14
  %29 = load i32, ptr %28, align 8
  %30 = icmp eq i32 %29, %24
  br i1 %30, label %31, label %35

31:                                               ; preds = %.lr.ph.i.i.i.i
  %32 = getelementptr inbounds i8, ptr %28, i64 8
  %33 = load ptr, ptr %32, align 8
  %34 = icmp eq ptr %33, %19
  br i1 %34, label %_ZN11ModuleEntry18get_archived_entryEPS_.exit, label %35

35:                                               ; preds = %31, %.lr.ph.i.i.i.i
  %36 = getelementptr inbounds i8, ptr %28, i64 24
  br label %.lr.ph.i.i.i.i

_ZN11ModuleEntry18get_archived_entryEPS_.exit:    ; preds = %31
  %37 = getelementptr inbounds i8, ptr %28, i64 16
  %38 = load ptr, ptr %37, align 8
  %39 = getelementptr inbounds ptr, ptr %15, i64 %indvars.iv
  store ptr %38, ptr %39, align 8
  tail call void @_ZN16ArchivePtrMarker12mark_pointerEPPh(ptr noundef nonnull %39) #16
  %indvars.iv.next = add nuw nsw i64 %indvars.iv, 1
  %exitcond.not = icmp eq i64 %indvars.iv.next, %wide.trip.count
  br i1 %exitcond.not, label %.thread, label %16, !llvm.loop !15

.thread:                                          ; preds = %_ZN11ModuleEntry18get_archived_entryEPS_.exit, %1, %3
  %.013 = phi ptr [ null, %3 ], [ null, %1 ], [ %13, %_ZN11ModuleEntry18get_archived_entryEPS_.exit ]
  ret ptr %.013
}